; ModuleID = '19/3062.c'
source_filename = "19/3062.c"
target datalayout = "e-m:e-p270:32:32-p271:32:32-p272:64:64-i64:64-f80:128-n8:16:32:64-S128"
target triple = "x86_64-pc-linux-gnu"

@.str = private unnamed_addr constant [3 x i8] c"%s\00", align 1
@.str.1 = private unnamed_addr constant [2 x i8] c" \00", align 1

; Function Attrs: noinline nounwind uwtable
define dso_local void @main() #0 {
  %1 = alloca i32, align 4
  %2 = alloca i32, align 4
  %3 = alloca i32, align 4
  %4 = alloca [100 x [100 x i8]], align 16
  store i32 0, i32* %2, align 4
  store i32 0, i32* %1, align 4
  br label %5

5:                                                ; preds = %22, %0
  %6 = load i32, i32* %1, align 4
  %7 = icmp slt i32 %6, 100
  br i1 %7, label %8, label %25

8:                                                ; preds = %5
  %9 = load i32, i32* %1, align 4
  %10 = sext i32 %9 to i64
  %11 = getelementptr inbounds [100 x [100 x i8]], [100 x [100 x i8]]* %4, i64 0, i64 %10
  %12 = getelementptr inbounds [100 x i8], [100 x i8]* %11, i64 0, i64 0
  %13 = call i32 (i8*, ...) @__isoc99_scanf(i8* getelementptr inbounds ([3 x i8], [3 x i8]* @.str, i64 0, i64 0), i8* %12)
  %14 = load i32, i32* %1, align 4
  %15 = sext i32 %14 to i64
  %16 = getelementptr inbounds [100 x [100 x i8]], [100 x [100 x i8]]* %4, i64 0, i64 %15
  %17 = getelementptr inbounds [100 x i8], [100 x i8]* %16, i64 0, i64 0
  %18 = call i64 @strlen(i8* %17) #3
  %19 = icmp eq i64 %18, 0
  br i1 %19, label %20, label %21

20:                                               ; preds = %8
  br label %25

21:                                               ; preds = %8
  br label %22

22:                                               ; preds = %21
  %23 = load i32, i32* %1, align 4
  %24 = add nsw i32 %23, 1
  store i32 %24, i32* %1, align 4
  br label %5

25:                                               ; preds = %20, %5
  %26 = load i32, i32* %1, align 4
  %27 = sub nsw i32 %26, 2
  store i32 %27, i32* %3, align 4
  store i32 0, i32* %1, align 4
  br label %28

28:                                               ; preds = %64, %25
  %29 = load i32, i32* %1, align 4
  %30 = load i32, i32* %3, align 4
  %31 = icmp slt i32 %29, %30
  br i1 %31, label %32, label %67

32:                                               ; preds = %28
  %33 = load i32, i32* %2, align 4
  %34 = icmp ne i32 %33, 0
  br i1 %34, label %35, label %37

35:                                               ; preds = %32
  %36 = call i32 (i8*, ...) @printf(i8* getelementptr inbounds ([2 x i8], [2 x i8]* @.str.1, i64 0, i64 0))
  br label %37

37:                                               ; preds = %35, %32
  %38 = load i32, i32* %1, align 4
  %39 = sext i32 %38 to i64
  %40 = getelementptr inbounds [100 x [100 x i8]], [100 x [100 x i8]]* %4, i64 0, i64 %39
  %41 = getelementptr inbounds [100 x i8], [100 x i8]* %40, i64 0, i64 0
  %42 = load i32, i32* %3, align 4
  %43 = sext i32 %42 to i64
  %44 = getelementptr inbounds [100 x [100 x i8]], [100 x [100 x i8]]* %4, i64 0, i64 %43
  %45 = getelementptr inbounds [100 x i8], [100 x i8]* %44, i64 0, i64 0
  %46 = call i32 @strcmp(i8* %41, i8* %45) #3
  %47 = icmp eq i32 %46, 0
  br i1 %47, label %48, label %55

48:                                               ; preds = %37
  %49 = load i32, i32* %3, align 4
  %50 = add nsw i32 %49, 1
  %51 = sext i32 %50 to i64
  %52 = getelementptr inbounds [100 x [100 x i8]], [100 x [100 x i8]]* %4, i64 0, i64 %51
  %53 = getelementptr inbounds [100 x i8], [100 x i8]* %52, i64 0, i64 0
  %54 = call i32 (i8*, ...) @printf(i8* getelementptr inbounds ([3 x i8], [3 x i8]* @.str, i64 0, i64 0), i8* %53)
  br label %61

55:                                               ; preds = %37
  %56 = load i32, i32* %1, align 4
  %57 = sext i32 %56 to i64
  %58 = getelementptr inbounds [100 x [100 x i8]], [100 x [100 x i8]]* %4, i64 0, i64 %57
  %59 = getelementptr inbounds [100 x i8], [100 x i8]* %58, i64 0, i64 0
  %60 = call i32 (i8*, ...) @printf(i8* getelementptr inbounds ([3 x i8], [3 x i8]* @.str, i64 0, i64 0), i8* %59)
  br label %61

61:                                               ; preds = %55, %48
  %62 = load i32, i32* %2, align 4
  %63 = add nsw i32 %62, 1
  store i32 %63, i32* %2, align 4
  br label %64

64:                                               ; preds = %61
  %65 = load i32, i32* %1, align 4
  %66 = add nsw i32 %65, 1
  store i32 %66, i32* %1, align 4
  br label %28

67:                                               ; preds = %28
  ret void
}

declare dso_local i32 @__isoc99_scanf(i8*, ...) #1

; Function Attrs: nounwind readonly
declare dso_local i64 @strlen(i8*) #2

declare dso_local i32 @printf(i8*, ...) #1

; Function Attrs: nounwind readonly
declare dso_local i32 @strcmp(i8*, i8*) #2


!llvm.module.flags = !{!0}
!llvm.ident = !{!1}

!0 = !{i32 1, !"wchar_size", i32 4}
!1 = !{!"clang version 10.0.0-4ubuntu1 "}
