; ModuleID = 'source-C-CXX/18/3062.c'
source_filename = "source-C-CXX/18/3062.c"
target datalayout = "e-m:e-p270:32:32-p271:32:32-p272:64:64-i64:64-f80:128-n8:16:32:64-S128"
target triple = "x86_64-pc-linux-gnu"

@.str = private unnamed_addr constant [3 x i8] c"%s\00", align 1

; Function Attrs: nofree nounwind sspstrong uwtable
define dso_local void @main() local_unnamed_addr #0 {
  %1 = alloca [100 x [100 x i8]], align 16
  %2 = getelementptr inbounds [100 x [100 x i8]], [100 x [100 x i8]]* %1, i64 0, i64 0, i64 0
  call void @llvm.lifetime.start.p0i8(i64 10000, i8* nonnull %2) #5
  br label %3

3:                                                ; preds = %0, %9
  %4 = phi i64 [ 0, %0 ], [ %10, %9 ]
  %5 = getelementptr inbounds [100 x [100 x i8]], [100 x [100 x i8]]* %1, i64 0, i64 %4, i64 0
  %6 = call i32 (i8*, ...) @__isoc99_scanf(i8* getelementptr inbounds ([3 x i8], [3 x i8]* @.str, i64 0, i64 0), i8* nonnull %5)
  %7 = call i64 @strlen(i8* noundef nonnull %5) #6
  %8 = icmp eq i64 %7, 0
  br i1 %8, label %12, label %9

9:                                                ; preds = %3
  %10 = add nuw nsw i64 %4, 1
  %11 = icmp eq i64 %10, 100
  br i1 %11, label %14, label %3, !llvm.loop !5

12:                                               ; preds = %3
  %13 = trunc i64 %4 to i32
  br label %14

14:                                               ; preds = %9, %12
  %15 = phi i32 [ %13, %12 ], [ 100, %9 ]
  %16 = add nsw i32 %15, -2
  %17 = sext i32 %16 to i64
  %18 = getelementptr inbounds [100 x [100 x i8]], [100 x [100 x i8]]* %1, i64 0, i64 %17, i64 0
  %19 = add nsw i32 %15, -1
  %20 = sext i32 %19 to i64
  %21 = getelementptr inbounds [100 x [100 x i8]], [100 x [100 x i8]]* %1, i64 0, i64 %20, i64 0
  %22 = icmp sgt i32 %15, 2
  br i1 %22, label %23, label %40

23:                                               ; preds = %14
  %24 = zext i32 %16 to i64
  %25 = call i32 @strcmp(i8* noundef nonnull %2, i8* noundef nonnull %18) #6
  %26 = icmp eq i32 %25, 0
  %27 = select i1 %26, i8* %21, i8* %2
  %28 = call i32 (i8*, ...) @printf(i8* nonnull dereferenceable(1) getelementptr inbounds ([3 x i8], [3 x i8]* @.str, i64 0, i64 0), i8* nonnull %27)
  %29 = icmp eq i32 %16, 1
  br i1 %29, label %40, label %30

30:                                               ; preds = %23, %30
  %31 = phi i64 [ %38, %30 ], [ 1, %23 ]
  %32 = call i32 @putchar(i32 32)
  %33 = getelementptr inbounds [100 x [100 x i8]], [100 x [100 x i8]]* %1, i64 0, i64 %31, i64 0
  %34 = call i32 @strcmp(i8* noundef nonnull %33, i8* noundef nonnull %18) #6
  %35 = icmp eq i32 %34, 0
  %36 = select i1 %35, i8* %21, i8* %33
  %37 = call i32 (i8*, ...) @printf(i8* nonnull dereferenceable(1) getelementptr inbounds ([3 x i8], [3 x i8]* @.str, i64 0, i64 0), i8* nonnull %36)
  %38 = add nuw nsw i64 %31, 1
  %39 = icmp eq i64 %38, %24
  br i1 %39, label %40, label %30, !llvm.loop !7

40:                                               ; preds = %30, %23, %14
  call void @llvm.lifetime.end.p0i8(i64 10000, i8* nonnull %2) #5
  ret void
}

; Function Attrs: argmemonly mustprogress nofree nosync nounwind willreturn
declare void @llvm.lifetime.start.p0i8(i64 immarg, i8* nocapture) #1

; Function Attrs: nofree nounwind
declare noundef i32 @__isoc99_scanf(i8* nocapture noundef readonly, ...) local_unnamed_addr #2

; Function Attrs: argmemonly mustprogress nofree nounwind readonly willreturn
declare i64 @strlen(i8* nocapture) local_unnamed_addr #3

; Function Attrs: nofree nounwind
declare noundef i32 @printf(i8* nocapture noundef readonly, ...) local_unnamed_addr #2

; Function Attrs: argmemonly mustprogress nofree nounwind readonly willreturn
declare i32 @strcmp(i8* nocapture, i8* nocapture) local_unnamed_addr #3

; Function Attrs: argmemonly mustprogress nofree nosync nounwind willreturn
declare void @llvm.lifetime.end.p0i8(i64 immarg, i8* nocapture) #1

; Function Attrs: nofree nounwind
declare noundef i32 @putchar(i32 noundef) local_unnamed_addr #4


!llvm.module.flags = !{!0, !1, !2, !3}
!llvm.ident = !{!4}

!0 = !{i32 1, !"wchar_size", i32 4}
!1 = !{i32 7, !"PIC Level", i32 2}
!2 = !{i32 7, !"PIE Level", i32 2}
!3 = !{i32 7, !"uwtable", i32 1}
!4 = !{!"clang version 13.0.0"}
!5 = distinct !{!5, !6}
!6 = !{!"llvm.loop.mustprogress"}
!7 = distinct !{!7, !6, !8}
!8 = !{!"llvm.loop.peeled.count", i32 1}
